target datalayout = "e-m:e-p270:32:32-p271:32:32-p272:64:64-i64:64-i128:128-f80:128-n8:16:32:64-S128"
target triple = "x86_64-pc-linux-gnu"

@stdout = external global ptr, align 8
@.str.26 = private unnamed_addr constant [2 x i8] c"\0A\00", align 1
@.str.33 = private unnamed_addr constant [65 x i8] c"[INFO] C <---------------------------- S (DATA chunk)\0A%lu bytes\0A\00", align 1

; Function Attrs: nounwind uwtable
define internal i32 @on_data_chunk_recv_callback(ptr noundef %0, i8 noundef zeroext %1, i32 noundef %2, ptr noundef %3, i64 noundef %4, ptr noundef %5) #0 {
  %7 = alloca ptr, align 8
  %8 = alloca i8, align 1
  %9 = alloca i32, align 4
  %10 = alloca ptr, align 8
  %11 = alloca i64, align 8
  %12 = alloca ptr, align 8
  %13 = alloca ptr, align 8
  store ptr %0, ptr %7, align 8, !tbaa !84
  store i8 %1, ptr %8, align 1, !tbaa !12
  store i32 %2, ptr %9, align 4, !tbaa !4
  store ptr %3, ptr %10, align 8, !tbaa !13
  store i64 %4, ptr %11, align 8, !tbaa !19
  store ptr %5, ptr %12, align 8, !tbaa !85
  call void @llvm.lifetime.start.p0(i64 8, ptr %13) #11
  %14 = load ptr, ptr %7, align 8, !tbaa !84
  %15 = load i32, ptr %9, align 4, !tbaa !4
  %16 = call ptr @nghttp2_session_get_stream_user_data(ptr noundef %14, i32 noundef %15)
  store ptr %16, ptr %13, align 8, !tbaa !53
  %17 = load ptr, ptr %13, align 8, !tbaa !53
  %18 = icmp ne ptr %17, null
  br i1 %18, label %19, label %27

19:                                               ; preds = %6
  %20 = load i64, ptr %11, align 8, !tbaa !19
  %21 = call i32 (ptr, ...) @printf(ptr noundef @.str.33, i64 noundef %20)
  %22 = load ptr, ptr %10, align 8, !tbaa !13
  %23 = load i64, ptr %11, align 8, !tbaa !19
  %24 = load ptr, ptr @stdout, align 8, !tbaa !15
  %25 = call i64 @fwrite(ptr noundef %22, i64 noundef 1, i64 noundef %23, ptr noundef %24)
  %26 = call i32 (ptr, ...) @printf(ptr noundef @.str.26)
  br label %27

27:                                               ; preds = %19, %6
  call void @llvm.lifetime.end.p0(i64 8, ptr %13) #11
  ret i32 0
}