; Function Attrs: nounwind uwtable
define internal noundef i32 @on_data_chunk_recv_callback(ptr noundef %0, i8 zeroext %1, i32 noundef %2, ptr noundef captures(none) %3, i64 noundef %4, ptr readnone captures(none) %5) #0 {
  %7 = tail call ptr @nghttp2_session_get_stream_user_data(ptr noundef %0, i32 noundef %2) #16
  %.not = icmp eq ptr %7, null
  br i1 %.not, label %12, label %8

8:                                                ; preds = %6
  %9 = tail call i32 (ptr, ...) @printf(ptr noundef nonnull dereferenceable(1) @.str.33, i64 noundef %4)
  %10 = load ptr, ptr @stdout, align 8, !tbaa !56
  %11 = tail call i64 @fwrite(ptr noundef %3, i64 noundef 1, i64 noundef %4, ptr noundef %10)
  %putchar = tail call i32 @putchar(i32 10)
  br label %12

12:                                               ; preds = %8, %6
  ret i32 0
}